target datalayout = "e-m:e-p270:32:32-p271:32:32-p272:64:64-i64:64-i128:128-f80:128-n8:16:32:64-S128"
target triple = "x86_64-pc-linux-gnu"

%"struct.icu_77::PCEBuffer" = type { [16 x %"struct.icu_77::PCEI"], ptr, i32, i32 }
%"struct.icu_77::PCEI" = type { i64, i32, i32 }
%"class.icu_77::UCollationPCE" = type <{ %"struct.icu_77::PCEBuffer", ptr, i32, i8, i8, [2 x i8], i32, [4 x i8] }>

; Function Attrs: mustprogress nounwind uwtable
define i32 @ucol_primaryOrder_77(i32 noundef %0) #0 {
  %2 = alloca i32, align 4
  store i32 %0, ptr %2, align 4, !tbaa !14
  %3 = load i32, ptr %2, align 4, !tbaa !14
  %4 = ashr i32 %3, 16
  %5 = and i32 %4, 65535
  ret i32 %5
}

; Function Attrs: mustprogress nounwind uwtable
define i32 @ucol_secondaryOrder_77(i32 noundef %0) #0 {
  %2 = alloca i32, align 4
  store i32 %0, ptr %2, align 4, !tbaa !14
  %3 = load i32, ptr %2, align 4, !tbaa !14
  %4 = ashr i32 %3, 8
  %5 = and i32 %4, 255
  ret i32 %5
}

; Function Attrs: mustprogress nounwind uwtable
define i32 @ucol_tertiaryOrder_77(i32 noundef %0) #0 {
  %2 = alloca i32, align 4
  store i32 %0, ptr %2, align 4, !tbaa !14
  %3 = load i32, ptr %2, align 4, !tbaa !14
  %4 = and i32 %3, 255
  ret i32 %4
}

; Function Attrs: mustprogress uwtable
define noundef i64 @_ZN6icu_7713UCollationPCE9processCEEj(ptr noundef nonnull align 8 dereferenceable(292) %0, i32 noundef %1) #3 align 2 {
  %3 = alloca i64, align 8
  %4 = alloca ptr, align 8
  %5 = alloca i32, align 4
  %6 = alloca i64, align 8
  %7 = alloca i64, align 8
  %8 = alloca i64, align 8
  %9 = alloca i64, align 8
  %10 = alloca i32, align 4
  store ptr %0, ptr %4, align 8, !tbaa !37
  store i32 %1, ptr %5, align 4, !tbaa !14
  %11 = load ptr, ptr %4, align 8
  call void @llvm.lifetime.start.p0(i64 8, ptr %6) #11
  store i64 0, ptr %6, align 8, !tbaa !30
  call void @llvm.lifetime.start.p0(i64 8, ptr %7) #11
  store i64 0, ptr %7, align 8, !tbaa !30
  call void @llvm.lifetime.start.p0(i64 8, ptr %8) #11
  store i64 0, ptr %8, align 8, !tbaa !30
  call void @llvm.lifetime.start.p0(i64 8, ptr %9) #11
  store i64 0, ptr %9, align 8, !tbaa !30
  %12 = getelementptr inbounds nuw %"class.icu_77::UCollationPCE", ptr %11, i32 0, i32 2
  %13 = load i32, ptr %12, align 8, !tbaa !58
  switch i32 %13, label %14 [
    i32 1, label %18
    i32 0, label %22
  ]

14:                                               ; preds = %2
  %15 = load i32, ptr %5, align 4, !tbaa !14
  %16 = call i32 @ucol_tertiaryOrder_77(i32 noundef %15)
  %17 = sext i32 %16 to i64
  store i64 %17, ptr %8, align 8, !tbaa !30
  br label %18

18:                                               ; preds = %2, %14
  %19 = load i32, ptr %5, align 4, !tbaa !14
  %20 = call i32 @ucol_secondaryOrder_77(i32 noundef %19)
  %21 = sext i32 %20 to i64
  store i64 %21, ptr %7, align 8, !tbaa !30
  br label %22

22:                                               ; preds = %2, %18
  %23 = load i32, ptr %5, align 4, !tbaa !14
  %24 = call i32 @ucol_primaryOrder_77(i32 noundef %23)
  %25 = sext i32 %24 to i64
  store i64 %25, ptr %6, align 8, !tbaa !30
  br label %26

26:                                               ; preds = %22
  %27 = getelementptr inbounds nuw %"class.icu_77::UCollationPCE", ptr %11, i32 0, i32 3
  %28 = load i8, ptr %27, align 4, !tbaa !59
  %29 = icmp ne i8 %28, 0
  br i1 %29, label %30, label %38

30:                                               ; preds = %26
  %31 = getelementptr inbounds nuw %"class.icu_77::UCollationPCE", ptr %11, i32 0, i32 6
  %32 = load i32, ptr %31, align 8, !tbaa !61
  %33 = load i32, ptr %5, align 4, !tbaa !14
  %34 = icmp ugt i32 %32, %33
  br i1 %34, label %35, label %38

35:                                               ; preds = %30
  %36 = load i64, ptr %6, align 8, !tbaa !30
  %37 = icmp ne i64 %36, 0
  br i1 %37, label %45, label %38

38:                                               ; preds = %35, %30, %26
  %39 = getelementptr inbounds nuw %"class.icu_77::UCollationPCE", ptr %11, i32 0, i32 4
  %40 = load i8, ptr %39, align 1, !tbaa !60
  %41 = icmp ne i8 %40, 0
  br i1 %41, label %42, label %57

42:                                               ; preds = %38
  %43 = load i64, ptr %6, align 8, !tbaa !30
  %44 = icmp eq i64 %43, 0
  br i1 %44, label %45, label %57

45:                                               ; preds = %42, %35
  %46 = load i64, ptr %6, align 8, !tbaa !30
  %47 = icmp eq i64 %46, 0
  br i1 %47, label %48, label %49

48:                                               ; preds = %45
  store i64 0, ptr %3, align 8
  store i32 1, ptr %10, align 4
  br label %75

49:                                               ; preds = %45
  %50 = getelementptr inbounds nuw %"class.icu_77::UCollationPCE", ptr %11, i32 0, i32 2
  %51 = load i32, ptr %50, align 8, !tbaa !58
  %52 = icmp sge i32 %51, 3
  br i1 %52, label %53, label %55

53:                                               ; preds = %49
  %54 = load i64, ptr %6, align 8, !tbaa !30
  store i64 %54, ptr %9, align 8, !tbaa !30
  br label %55

55:                                               ; preds = %53, %49
  store i64 0, ptr %8, align 8, !tbaa !30
  store i64 0, ptr %7, align 8, !tbaa !30
  store i64 0, ptr %6, align 8, !tbaa !30
  %56 = getelementptr inbounds nuw %"class.icu_77::UCollationPCE", ptr %11, i32 0, i32 4
  store i8 1, ptr %56, align 1, !tbaa !60
  br label %64

57:                                               ; preds = %42, %38
  %58 = getelementptr inbounds nuw %"class.icu_77::UCollationPCE", ptr %11, i32 0, i32 2
  %59 = load i32, ptr %58, align 8, !tbaa !58
  %60 = icmp sge i32 %59, 3
  br i1 %60, label %61, label %62

61:                                               ; preds = %57
  store i64 65535, ptr %9, align 8, !tbaa !30
  br label %62

62:                                               ; preds = %61, %57
  %63 = getelementptr inbounds nuw %"class.icu_77::UCollationPCE", ptr %11, i32 0, i32 4
  store i8 0, ptr %63, align 1, !tbaa !60
  br label %64

64:                                               ; preds = %62, %55
  %65 = load i64, ptr %6, align 8, !tbaa !30
  %66 = shl i64 %65, 48
  %67 = load i64, ptr %7, align 8, !tbaa !30
  %68 = shl i64 %67, 32
  %69 = or i64 %66, %68
  %70 = load i64, ptr %8, align 8, !tbaa !30
  %71 = shl i64 %70, 16
  %72 = or i64 %69, %71
  %73 = load i64, ptr %9, align 8, !tbaa !30
  %74 = or i64 %72, %73
  store i64 %74, ptr %3, align 8
  store i32 1, ptr %10, align 4
  br label %75

75:                                               ; preds = %64, %48
  call void @llvm.lifetime.end.p0(i64 8, ptr %9) #11
  call void @llvm.lifetime.end.p0(i64 8, ptr %8) #11
  call void @llvm.lifetime.end.p0(i64 8, ptr %7) #11
  call void @llvm.lifetime.end.p0(i64 8, ptr %6) #11
  %76 = load i64, ptr %3, align 8
  ret i64 %76
}

; Function Attrs: mustprogress nounwind uwtable
define void @_ZN6icu_779PCEBuffer5resetEv(ptr noundef nonnull align 8 dereferenceable(272) %0) #0 align 2 {
  %2 = alloca ptr, align 8
  store ptr %0, ptr %2, align 8, !tbaa !23
  %3 = load ptr, ptr %2, align 8
  %4 = getelementptr inbounds nuw %"struct.icu_77::PCEBuffer", ptr %3, i32 0, i32 2
  store i32 0, ptr %4, align 8, !tbaa !28
  ret void
}

; Function Attrs: inlinehint mustprogress nounwind uwtable
define internal noundef signext i8 @_ZL9U_FAILURE10UErrorCode(i32 noundef %0) #4 {
  %2 = alloca i32, align 4
  store i32 %0, ptr %2, align 4, !tbaa !16
  %3 = load i32, ptr %2, align 4, !tbaa !16
  %4 = icmp sgt i32 %3, 0
  %5 = zext i1 %4 to i8
  ret i8 %5
}

; Function Attrs: mustprogress uwtable
define noundef i64 @_ZN6icu_7713UCollationPCE13nextProcessedEPiS1_P10UErrorCode(ptr noundef nonnull align 8 dereferenceable(292) %0, ptr noundef %1, ptr noundef %2, ptr noundef %3) #3 align 2 {
  %5 = alloca i64, align 8
  %6 = alloca ptr, align 8
  %7 = alloca ptr, align 8
  %8 = alloca ptr, align 8
  %9 = alloca ptr, align 8
  %10 = alloca i64, align 8
  %11 = alloca i32, align 4
  %12 = alloca i32, align 4
  %13 = alloca i32, align 4
  %14 = alloca i32, align 4
  store ptr %0, ptr %6, align 8, !tbaa !37
  store ptr %1, ptr %7, align 8, !tbaa !72
  store ptr %2, ptr %8, align 8, !tbaa !72
  store ptr %3, ptr %9, align 8, !tbaa !15
  %15 = load ptr, ptr %6, align 8
  call void @llvm.lifetime.start.p0(i64 8, ptr %10) #11
  store i64 0, ptr %10, align 8, !tbaa !30
  call void @llvm.lifetime.start.p0(i64 4, ptr %11) #11
  store i32 0, ptr %11, align 4, !tbaa !14
  call void @llvm.lifetime.start.p0(i64 4, ptr %12) #11
  store i32 0, ptr %12, align 4, !tbaa !14
  %16 = load ptr, ptr %9, align 8, !tbaa !15
  %17 = load i32, ptr %16, align 4, !tbaa !16
  %18 = call noundef signext i8 @_ZL9U_FAILURE10UErrorCode(i32 noundef %17)
  %19 = icmp ne i8 %18, 0
  br i1 %19, label %20, label %21

20:                                               ; preds = %4
  store i64 9223372036854775807, ptr %5, align 8
  store i32 1, ptr %13, align 4
  br label %60

21:                                               ; preds = %4
  %22 = getelementptr inbounds nuw %"class.icu_77::UCollationPCE", ptr %15, i32 0, i32 0
  call void @_ZN6icu_779PCEBuffer5resetEv(ptr noundef nonnull align 8 dereferenceable(272) %22)
  br label %23

23:                                               ; preds = %43, %21
  %24 = getelementptr inbounds nuw %"class.icu_77::UCollationPCE", ptr %15, i32 0, i32 1
  %25 = load ptr, ptr %24, align 8, !tbaa !43
  %26 = call noundef i32 @_ZNK6icu_7724CollationElementIterator9getOffsetEv(ptr noundef nonnull align 8 dereferenceable(104) %25)
  store i32 %26, ptr %11, align 4, !tbaa !14
  call void @llvm.lifetime.start.p0(i64 4, ptr %14) #11
  %27 = getelementptr inbounds nuw %"class.icu_77::UCollationPCE", ptr %15, i32 0, i32 1
  %28 = load ptr, ptr %27, align 8, !tbaa !43
  %29 = load ptr, ptr %9, align 8, !tbaa !15
  %30 = call noundef i32 @_ZN6icu_7724CollationElementIterator4nextER10UErrorCode(ptr noundef nonnull align 8 dereferenceable(104) %28, ptr noundef nonnull align 4 dereferenceable(4) %29)
  store i32 %30, ptr %14, align 4, !tbaa !14
  %31 = getelementptr inbounds nuw %"class.icu_77::UCollationPCE", ptr %15, i32 0, i32 1
  %32 = load ptr, ptr %31, align 8, !tbaa !43
  %33 = call noundef i32 @_ZNK6icu_7724CollationElementIterator9getOffsetEv(ptr noundef nonnull align 8 dereferenceable(104) %32)
  store i32 %33, ptr %12, align 4, !tbaa !14
  %34 = load i32, ptr %14, align 4, !tbaa !14
  %35 = icmp eq i32 %34, -1
  br i1 %35, label %36, label %37

36:                                               ; preds = %23
  store i64 9223372036854775807, ptr %10, align 8, !tbaa !30
  store i32 2, ptr %13, align 4
  br label %40

37:                                               ; preds = %23
  %38 = load i32, ptr %14, align 4, !tbaa !14
  %39 = call noundef i64 @_ZN6icu_7713UCollationPCE9processCEEj(ptr noundef nonnull align 8 dereferenceable(292) %15, i32 noundef %38)
  store i64 %39, ptr %10, align 8, !tbaa !30
  store i32 0, ptr %13, align 4
  br label %40

40:                                               ; preds = %37, %36
  call void @llvm.lifetime.end.p0(i64 4, ptr %14) #11
  %41 = load i32, ptr %13, align 4
  switch i32 %41, label %62 [
    i32 0, label %42
    i32 2, label %46
  ]

42:                                               ; preds = %40
  br label %43

43:                                               ; preds = %42
  %44 = load i64, ptr %10, align 8, !tbaa !30
  %45 = icmp eq i64 %44, 0
  br i1 %45, label %23, label %46, !llvm.loop !74

46:                                               ; preds = %43, %40
  %47 = load ptr, ptr %7, align 8, !tbaa !72
  %48 = icmp ne ptr %47, null
  br i1 %48, label %49, label %52

49:                                               ; preds = %46
  %50 = load i32, ptr %11, align 4, !tbaa !14
  %51 = load ptr, ptr %7, align 8, !tbaa !72
  store i32 %50, ptr %51, align 4, !tbaa !14
  br label %52

52:                                               ; preds = %49, %46
  %53 = load ptr, ptr %8, align 8, !tbaa !72
  %54 = icmp ne ptr %53, null
  br i1 %54, label %55, label %58

55:                                               ; preds = %52
  %56 = load i32, ptr %12, align 4, !tbaa !14
  %57 = load ptr, ptr %8, align 8, !tbaa !72
  store i32 %56, ptr %57, align 4, !tbaa !14
  br label %58

58:                                               ; preds = %55, %52
  %59 = load i64, ptr %10, align 8, !tbaa !30
  store i64 %59, ptr %5, align 8
  store i32 1, ptr %13, align 4
  br label %60

60:                                               ; preds = %58, %20
  call void @llvm.lifetime.end.p0(i64 4, ptr %12) #11
  call void @llvm.lifetime.end.p0(i64 4, ptr %11) #11
  call void @llvm.lifetime.end.p0(i64 8, ptr %10) #11
  %61 = load i64, ptr %5, align 8
  ret i64 %61

62:                                               ; preds = %40
  unreachable
}