; Function Attrs: mustprogress uwtable
define noundef range(i64 1, -280375465082880) i64 @_ZN6icu_7713UCollationPCE13nextProcessedEPiS1_P10UErrorCode(ptr noundef nonnull align 8 captures(none) dereferenceable(292) %0, ptr noundef writeonly %1, ptr noundef writeonly %2, ptr noundef %3) local_unnamed_addr #6 align 2 {
  %5 = load i32, ptr %3, align 4, !tbaa !12
  %6 = icmp slt i32 %5, 1
  br i1 %6, label %7, label %59

7:                                                ; preds = %4
  %8 = getelementptr inbounds nuw i8, ptr %0, i64 264
  store i32 0, ptr %8, align 8, !tbaa !21
  %9 = getelementptr inbounds nuw i8, ptr %0, i64 272
  %10 = getelementptr inbounds nuw i8, ptr %0, i64 280
  %11 = getelementptr inbounds nuw i8, ptr %0, i64 284
  %12 = getelementptr inbounds nuw i8, ptr %0, i64 288
  %13 = getelementptr inbounds nuw i8, ptr %0, i64 285
  br label %14

14:                                               ; preds = %_ZN6icu_7713UCollationPCE9processCEEj.exit, %7
  %15 = load ptr, ptr %9, align 8, !tbaa !28
  %16 = tail call noundef i32 @_ZNK6icu_7724CollationElementIterator9getOffsetEv(ptr noundef nonnull align 8 dereferenceable(104) %15)
  %17 = load ptr, ptr %9, align 8, !tbaa !28
  %18 = tail call noundef i32 @_ZN6icu_7724CollationElementIterator4nextER10UErrorCode(ptr noundef nonnull align 8 dereferenceable(104) %17, ptr noundef nonnull align 4 dereferenceable(4) %3)
  %19 = load ptr, ptr %9, align 8, !tbaa !28
  %20 = tail call noundef i32 @_ZNK6icu_7724CollationElementIterator9getOffsetEv(ptr noundef nonnull align 8 dereferenceable(104) %19)
  %21 = icmp eq i32 %18, -1
  br i1 %21, label %_ZN6icu_7713UCollationPCE9processCEEj.exit.thread, label %22

22:                                               ; preds = %14
  %23 = load i32, ptr %10, align 8, !tbaa !42
  switch i32 %23, label %24 [
    i32 1, label %28
    i32 0, label %33
  ]

24:                                               ; preds = %22
  %25 = shl i32 %18, 16
  %26 = and i32 %25, 16711680
  %27 = zext nneg i32 %26 to i64
  br label %28

28:                                               ; preds = %24, %22
  %.016.i = phi i64 [ %27, %24 ], [ 0, %22 ]
  %29 = lshr i32 %18, 8
  %30 = and i32 %29, 255
  %31 = zext nneg i32 %30 to i64
  %32 = shl nuw nsw i64 %31, 32
  br label %33

33:                                               ; preds = %28, %22
  %.019.i = phi i64 [ %32, %28 ], [ 0, %22 ]
  %.117.i = phi i64 [ %.016.i, %28 ], [ 0, %22 ]
  %34 = lshr i32 %18, 16
  %35 = zext nneg i32 %34 to i64
  %36 = load i8, ptr %11, align 4, !tbaa !43
  %.not.i = icmp eq i8 %36, 0
  br i1 %.not.i, label %41, label %37

37:                                               ; preds = %33
  %38 = load i32, ptr %12, align 8, !tbaa !45
  %39 = icmp ugt i32 %38, %18
  %40 = icmp ugt i32 %18, 65535
  %or.cond.i = and i1 %40, %39
  br i1 %or.cond.i, label %45, label %41

41:                                               ; preds = %37, %33
  %42 = load i8, ptr %13, align 1, !tbaa !44
  %43 = icmp ne i8 %42, 0
  %44 = icmp ult i32 %18, 65536
  %or.cond3.i = and i1 %44, %43
  br i1 %or.cond3.i, label %_ZN6icu_7713UCollationPCE9processCEEj.exit, label %47

45:                                               ; preds = %37
  %46 = icmp sgt i32 %23, 2
  %spec.select.i = select i1 %46, i64 %35, i64 0
  store i8 1, ptr %13, align 1, !tbaa !44
  br label %52

47:                                               ; preds = %41
  %48 = icmp sgt i32 %23, 2
  %spec.select24.i = select i1 %48, i64 65535, i64 0
  store i8 0, ptr %13, align 1, !tbaa !44
  %49 = shl nuw i64 %35, 48
  %50 = or i64 %.019.i, %49
  %51 = or i64 %50, %.117.i
  br label %52

52:                                               ; preds = %47, %45
  %.1.i = phi i64 [ %spec.select.i, %45 ], [ %spec.select24.i, %47 ]
  %53 = phi i64 [ 0, %45 ], [ %51, %47 ]
  %54 = or i64 %53, %.1.i
  br label %_ZN6icu_7713UCollationPCE9processCEEj.exit

_ZN6icu_7713UCollationPCE9processCEEj.exit:       ; preds = %52, %41
  %.015 = phi i64 [ %54, %52 ], [ 0, %41 ]
  %55 = icmp eq i64 %.015, 0
  br i1 %55, label %14, label %_ZN6icu_7713UCollationPCE9processCEEj.exit.thread, !llvm.loop !50

_ZN6icu_7713UCollationPCE9processCEEj.exit.thread: ; preds = %14, %_ZN6icu_7713UCollationPCE9processCEEj.exit
  %.01525 = phi i64 [ %.015, %_ZN6icu_7713UCollationPCE9processCEEj.exit ], [ 9223372036854775807, %14 ]
  %.not19 = icmp eq ptr %1, null
  br i1 %.not19, label %57, label %56

56:                                               ; preds = %_ZN6icu_7713UCollationPCE9processCEEj.exit.thread
  store i32 %16, ptr %1, align 4, !tbaa !52
  br label %57

57:                                               ; preds = %56, %_ZN6icu_7713UCollationPCE9processCEEj.exit.thread
  %.not20 = icmp eq ptr %2, null
  br i1 %.not20, label %59, label %58

58:                                               ; preds = %57
  store i32 %20, ptr %2, align 4, !tbaa !52
  br label %59

59:                                               ; preds = %57, %58, %4
  %.0 = phi i64 [ 9223372036854775807, %4 ], [ %.01525, %58 ], [ %.01525, %57 ]
  ret i64 %.0
}